target datalayout = "e-m:e-p270:32:32-p271:32:32-p272:64:64-i64:64-i128:128-f80:128-n8:16:32:64-S128"
target triple = "x86_64-pc-linux-gnu"

; Function Attrs: nounwind uwtable
define dso_local i32 @PyODict_SetItem(ptr noundef %0, ptr noundef %1, ptr noundef %2) #0 {
  %4 = alloca i32, align 4
  %5 = alloca ptr, align 8
  %6 = alloca ptr, align 8
  %7 = alloca ptr, align 8
  %8 = alloca i64, align 8
  %9 = alloca i32, align 4
  store ptr %0, ptr %5, align 8, !tbaa !42
  store ptr %1, ptr %6, align 8, !tbaa !42
  store ptr %2, ptr %7, align 8, !tbaa !42
  call void @llvm.lifetime.start.p0(i64 8, ptr %8) #7
  %10 = load ptr, ptr %6, align 8, !tbaa !42
  %11 = call i64 @PyObject_Hash(ptr noundef %10)
  store i64 %11, ptr %8, align 8, !tbaa !55
  %12 = load i64, ptr %8, align 8, !tbaa !55
  %13 = icmp eq i64 %12, -1
  br i1 %13, label %14, label %15

14:                                               ; preds = %3
  store i32 -1, ptr %4, align 4
  store i32 1, ptr %9, align 4
  br label %21

15:                                               ; preds = %3
  %16 = load ptr, ptr %5, align 8, !tbaa !42
  %17 = load ptr, ptr %6, align 8, !tbaa !42
  %18 = load ptr, ptr %7, align 8, !tbaa !42
  %19 = load i64, ptr %8, align 8, !tbaa !55
  %20 = call i32 @_PyODict_SetItem_KnownHash(ptr noundef %16, ptr noundef %17, ptr noundef %18, i64 noundef %19)
  store i32 %20, ptr %4, align 4
  store i32 1, ptr %9, align 4
  br label %21

21:                                               ; preds = %15, %14
  call void @llvm.lifetime.end.p0(i64 8, ptr %8) #7
  %22 = load i32, ptr %4, align 4
  ret i32 %22
}