; Function Attrs: nounwind uwtable
define dso_local i32 @PyODict_SetItem(ptr noundef %0, ptr noundef %1, ptr noundef %2) local_unnamed_addr #0 {
  %4 = tail call i64 @PyObject_Hash(ptr noundef %1) #8
  %5 = icmp eq i64 %4, -1
  br i1 %5, label %8, label %6

6:                                                ; preds = %3
  %7 = tail call fastcc i32 @_PyODict_SetItem_KnownHash(ptr noundef %0, ptr noundef %1, ptr noundef %2, i64 noundef %4)
  br label %8

8:                                                ; preds = %3, %6
  %.0 = phi i32 [ %7, %6 ], [ -1, %3 ]
  ret i32 %.0
}